; Function Attrs: mustprogress uwtable
define internal void @"_ZN4absl12lts_2023080222internal_any_invocable12LocalInvokerILb0EvRZN17grpc_event_engine12experimental16PosixEventEngineC1EvE3$_0JEEET0_PNS1_15TypeErasedStateEDpNS1_18ForwardedParameterIT2_E4typeE"(ptr nocapture noundef readonly %state) #3 personality ptr @__gxx_personality_v0 {
entry:
  %agg.tmp.i.i.i.i.i = alloca %"class.std::shared_ptr.50", align 8
  %call.val = load ptr, ptr %state, align 8
  %0 = getelementptr i8, ptr %state, i64 8
  %call.val1 = load ptr, ptr %0, align 8
  call void @llvm.lifetime.start.p0(i64 16, ptr nonnull %agg.tmp.i.i.i.i.i)
  store ptr %call.val, ptr %agg.tmp.i.i.i.i.i, align 8
  %_M_refcount.i.i.i.i.i.i.i = getelementptr inbounds i8, ptr %agg.tmp.i.i.i.i.i, i64 8
  store ptr %call.val1, ptr %_M_refcount.i.i.i.i.i.i.i, align 8
  %cmp.not.i.i.i.i.i.i.i.i = icmp eq ptr %call.val1, null
  br i1 %cmp.not.i.i.i.i.i.i.i.i, label %_ZNSt10shared_ptrIN17grpc_event_engine12experimental24PosixEnginePollerManagerEEC2ERKS3_.exit.i.i.i.i.i, label %if.then.i.i.i.i.i.i.i.i

if.then.i.i.i.i.i.i.i.i:                          ; preds = %entry
  %_M_use_count.i.i.i.i.i.i.i.i.i = getelementptr inbounds i8, ptr %call.val1, i64 8
  %1 = load i8, ptr @__libc_single_threaded, align 1
  %tobool.i.i.not.i.i.i.i.i.i.i.i.i = icmp eq i8 %1, 0
  br i1 %tobool.i.i.not.i.i.i.i.i.i.i.i.i, label %if.else.i.i.i.i.i.i.i.i.i.i, label %if.then.i.i.i.i.i.i.i.i.i.i

if.then.i.i.i.i.i.i.i.i.i.i:                      ; preds = %if.then.i.i.i.i.i.i.i.i
  %2 = load i32, ptr %_M_use_count.i.i.i.i.i.i.i.i.i, align 4
  %add.i.i.i.i.i.i.i.i.i.i = add nsw i32 %2, 1
  store i32 %add.i.i.i.i.i.i.i.i.i.i, ptr %_M_use_count.i.i.i.i.i.i.i.i.i, align 4
  br label %_ZNSt10shared_ptrIN17grpc_event_engine12experimental24PosixEnginePollerManagerEEC2ERKS3_.exit.i.i.i.i.i

if.else.i.i.i.i.i.i.i.i.i.i:                      ; preds = %if.then.i.i.i.i.i.i.i.i
  %3 = atomicrmw volatile add ptr %_M_use_count.i.i.i.i.i.i.i.i.i, i32 1 acq_rel, align 4
  br label %_ZNSt10shared_ptrIN17grpc_event_engine12experimental24PosixEnginePollerManagerEEC2ERKS3_.exit.i.i.i.i.i

_ZNSt10shared_ptrIN17grpc_event_engine12experimental24PosixEnginePollerManagerEEC2ERKS3_.exit.i.i.i.i.i: ; preds = %if.else.i.i.i.i.i.i.i.i.i.i, %if.then.i.i.i.i.i.i.i.i.i.i, %entry
  invoke void @_ZN17grpc_event_engine12experimental16PosixEventEngine18PollerWorkInternalESt10shared_ptrINS0_24PosixEnginePollerManagerEE(ptr noundef nonnull %agg.tmp.i.i.i.i.i)
          to label %invoke.cont.i.i.i.i.i unwind label %lpad.i.i.i.i.i

invoke.cont.i.i.i.i.i:                            ; preds = %_ZNSt10shared_ptrIN17grpc_event_engine12experimental24PosixEnginePollerManagerEEC2ERKS3_.exit.i.i.i.i.i
  %4 = load ptr, ptr %_M_refcount.i.i.i.i.i.i.i, align 8
  %cmp.not.i.i.i2.i.i.i.i.i = icmp eq ptr %4, null
  br i1 %cmp.not.i.i.i2.i.i.i.i.i, label %"_ZN4absl12lts_2023080222internal_any_invocable7InvokeRIvRZN17grpc_event_engine12experimental16PosixEventEngineC1EvE3$_0JEvEEvOT0_DpOT1_.exit", label %if.then.i.i.i3.i.i.i.i.i

if.then.i.i.i3.i.i.i.i.i:                         ; preds = %invoke.cont.i.i.i.i.i
  %_M_use_count.i.i.i.i4.i.i.i.i.i = getelementptr inbounds i8, ptr %4, i64 8
  %5 = load atomic i64, ptr %_M_use_count.i.i.i.i4.i.i.i.i.i acquire, align 8
  %cmp.i.i.i.i.i.i.i.i.i = icmp eq i64 %5, 4294967297
  %6 = trunc i64 %5 to i32
  br i1 %cmp.i.i.i.i.i.i.i.i.i, label %if.then.i.i.i.i.i.i.i.i.i, label %if.end.i.i.i.i.i.i.i.i.i

if.then.i.i.i.i.i.i.i.i.i:                        ; preds = %if.then.i.i.i3.i.i.i.i.i
  store i32 0, ptr %_M_use_count.i.i.i.i4.i.i.i.i.i, align 8
  %_M_weak_count.i.i.i.i.i.i.i.i.i = getelementptr inbounds i8, ptr %4, i64 12
  store i32 0, ptr %_M_weak_count.i.i.i.i.i.i.i.i.i, align 4
  %vtable.i.i.i.i.i.i.i.i.i = load ptr, ptr %4, align 8
  %vfn.i.i.i.i.i.i.i.i.i = getelementptr inbounds i8, ptr %vtable.i.i.i.i.i.i.i.i.i, i64 16
  %7 = load ptr, ptr %vfn.i.i.i.i.i.i.i.i.i, align 8
  call void %7(ptr noundef nonnull align 8 dereferenceable(16) %4) #26
  br label %if.end8.sink.split.i.i.i.i.i.i.i.i.i

if.end.i.i.i.i.i.i.i.i.i:                         ; preds = %if.then.i.i.i3.i.i.i.i.i
  %8 = load i8, ptr @__libc_single_threaded, align 1
  %tobool.i.not.i.i.i.i.i.i.i.i.i = icmp eq i8 %8, 0
  br i1 %tobool.i.not.i.i.i.i.i.i.i.i.i, label %if.else.i.i.i.i.i7.i.i.i.i.i, label %if.then.i.i.i.i.i5.i.i.i.i.i

if.then.i.i.i.i.i5.i.i.i.i.i:                     ; preds = %if.end.i.i.i.i.i.i.i.i.i
  %add.i.i.i.i.i6.i.i.i.i.i = add nsw i32 %6, -1
  store i32 %add.i.i.i.i.i6.i.i.i.i.i, ptr %_M_use_count.i.i.i.i4.i.i.i.i.i, align 4
  br label %_ZN9__gnu_cxx27__exchange_and_add_dispatchEPii.exit.i.i.i.i.i.i.i.i.i

if.else.i.i.i.i.i7.i.i.i.i.i:                     ; preds = %if.end.i.i.i.i.i.i.i.i.i
  %9 = atomicrmw volatile add ptr %_M_use_count.i.i.i.i4.i.i.i.i.i, i32 -1 acq_rel, align 4
  br label %_ZN9__gnu_cxx27__exchange_and_add_dispatchEPii.exit.i.i.i.i.i.i.i.i.i

_ZN9__gnu_cxx27__exchange_and_add_dispatchEPii.exit.i.i.i.i.i.i.i.i.i: ; preds = %if.else.i.i.i.i.i7.i.i.i.i.i, %if.then.i.i.i.i.i5.i.i.i.i.i
  %retval.i.0.i.i.i.i.i.i.i.i.i = phi i32 [ %6, %if.then.i.i.i.i.i5.i.i.i.i.i ], [ %9, %if.else.i.i.i.i.i7.i.i.i.i.i ]
  %cmp6.i.i.i.i.i.i.i.i.i = icmp eq i32 %retval.i.0.i.i.i.i.i.i.i.i.i, 1
  br i1 %cmp6.i.i.i.i.i.i.i.i.i, label %if.then7.i.i.i.i.i.i.i.i.i, label %"_ZN4absl12lts_2023080222internal_any_invocable7InvokeRIvRZN17grpc_event_engine12experimental16PosixEventEngineC1EvE3$_0JEvEEvOT0_DpOT1_.exit"

if.then7.i.i.i.i.i.i.i.i.i:                       ; preds = %_ZN9__gnu_cxx27__exchange_and_add_dispatchEPii.exit.i.i.i.i.i.i.i.i.i
  %vtable.i.i.i.i.i.i.i.i.i.i.i = load ptr, ptr %4, align 8
  %vfn.i.i.i.i.i.i.i.i.i.i.i = getelementptr inbounds i8, ptr %vtable.i.i.i.i.i.i.i.i.i.i.i, i64 16
  %10 = load ptr, ptr %vfn.i.i.i.i.i.i.i.i.i.i.i, align 8
  call void %10(ptr noundef nonnull align 8 dereferenceable(16) %4) #26
  %_M_weak_count.i.i.i.i.i.i.i.i.i.i.i = getelementptr inbounds i8, ptr %4, i64 12
  %11 = load i8, ptr @__libc_single_threaded, align 1
  %tobool.i.not.i.i.i.i.i.i.i.i.i.i.i = icmp eq i8 %11, 0
  br i1 %tobool.i.not.i.i.i.i.i.i.i.i.i.i.i, label %if.else.i.i.i.i.i.i.i.i.i.i.i.i, label %if.then.i.i.i.i.i.i.i.i.i.i.i.i

if.then.i.i.i.i.i.i.i.i.i.i.i.i:                  ; preds = %if.then7.i.i.i.i.i.i.i.i.i
  %12 = load i32, ptr %_M_weak_count.i.i.i.i.i.i.i.i.i.i.i, align 4
  %add.i.i.i.i.i.i.i.i.i.i.i.i = add nsw i32 %12, -1
  store i32 %add.i.i.i.i.i.i.i.i.i.i.i.i, ptr %_M_weak_count.i.i.i.i.i.i.i.i.i.i.i, align 4
  br label %_ZN9__gnu_cxx27__exchange_and_add_dispatchEPii.exit.i.i.i.i.i.i.i.i.i.i.i

if.else.i.i.i.i.i.i.i.i.i.i.i.i:                  ; preds = %if.then7.i.i.i.i.i.i.i.i.i
  %13 = atomicrmw volatile add ptr %_M_weak_count.i.i.i.i.i.i.i.i.i.i.i, i32 -1 acq_rel, align 4
  br label %_ZN9__gnu_cxx27__exchange_and_add_dispatchEPii.exit.i.i.i.i.i.i.i.i.i.i.i

_ZN9__gnu_cxx27__exchange_and_add_dispatchEPii.exit.i.i.i.i.i.i.i.i.i.i.i: ; preds = %if.else.i.i.i.i.i.i.i.i.i.i.i.i, %if.then.i.i.i.i.i.i.i.i.i.i.i.i
  %retval.i.0.i.i.i.i.i.i.i.i.i.i.i = phi i32 [ %12, %if.then.i.i.i.i.i.i.i.i.i.i.i.i ], [ %13, %if.else.i.i.i.i.i.i.i.i.i.i.i.i ]
  %cmp.i.i.i.i.i.i.i.i.i.i.i = icmp eq i32 %retval.i.0.i.i.i.i.i.i.i.i.i.i.i, 1
  br i1 %cmp.i.i.i.i.i.i.i.i.i.i.i, label %if.end8.sink.split.i.i.i.i.i.i.i.i.i, label %"_ZN4absl12lts_2023080222internal_any_invocable7InvokeRIvRZN17grpc_event_engine12experimental16PosixEventEngineC1EvE3$_0JEvEEvOT0_DpOT1_.exit"

if.end8.sink.split.i.i.i.i.i.i.i.i.i:             ; preds = %_ZN9__gnu_cxx27__exchange_and_add_dispatchEPii.exit.i.i.i.i.i.i.i.i.i.i.i, %if.then.i.i.i.i.i.i.i.i.i
  %vtable2.i.i.i.i.i.i.i.i.i.i.i = load ptr, ptr %4, align 8
  %vfn3.i.i.i.i.i.i.i.i.i.i.i = getelementptr inbounds i8, ptr %vtable2.i.i.i.i.i.i.i.i.i.i.i, i64 24
  %14 = load ptr, ptr %vfn3.i.i.i.i.i.i.i.i.i.i.i, align 8
  call void %14(ptr noundef nonnull align 8 dereferenceable(16) %4) #26
  br label %"_ZN4absl12lts_2023080222internal_any_invocable7InvokeRIvRZN17grpc_event_engine12experimental16PosixEventEngineC1EvE3$_0JEvEEvOT0_DpOT1_.exit"

lpad.i.i.i.i.i:                                   ; preds = %_ZNSt10shared_ptrIN17grpc_event_engine12experimental24PosixEnginePollerManagerEEC2ERKS3_.exit.i.i.i.i.i
  %15 = landingpad { ptr, i32 }
          cleanup
  call void @_ZNSt10shared_ptrIN17grpc_event_engine12experimental24PosixEnginePollerManagerEED2Ev(ptr noundef nonnull align 8 dereferenceable(16) %agg.tmp.i.i.i.i.i) #26
  resume { ptr, i32 } %15

"_ZN4absl12lts_2023080222internal_any_invocable7InvokeRIvRZN17grpc_event_engine12experimental16PosixEventEngineC1EvE3$_0JEvEEvOT0_DpOT1_.exit": ; preds = %invoke.cont.i.i.i.i.i, %_ZN9__gnu_cxx27__exchange_and_add_dispatchEPii.exit.i.i.i.i.i.i.i.i.i, %_ZN9__gnu_cxx27__exchange_and_add_dispatchEPii.exit.i.i.i.i.i.i.i.i.i.i.i, %if.end8.sink.split.i.i.i.i.i.i.i.i.i
  call void @llvm.lifetime.end.p0(i64 16, ptr nonnull %agg.tmp.i.i.i.i.i)
  ret void
}